#include <math.h>
#include <stdio.h>
#include <stdlib.h>
#include <string.h>

int main(){
	char str[3000],b[10];
	char *s=str,*p;
	int l;
	gets(s);
	strcat(s," ");
	while(*s){
		p=strchr(s,' ');
		*p='\0';
		strcpy(b,s);
		l=strlen(b);
		if(l!=0){
			printf("%d",l);
		}
		s=p+1;
		if(*s&&l!=0){
			printf(",");
		}
	}
	return 0;
}

