; ModuleID = '28/1123.c'
source_filename = "28/1123.c"
target datalayout = "e-m:e-p270:32:32-p271:32:32-p272:64:64-i64:64-f80:128-n8:16:32:64-S128"
target triple = "x86_64-pc-linux-gnu"

@.str = private unnamed_addr constant [2 x i8] c" \00", align 1
@.str.1 = private unnamed_addr constant [3 x i8] c"%d\00", align 1
@.str.2 = private unnamed_addr constant [2 x i8] c",\00", align 1

; Function Attrs: noinline nounwind uwtable
define dso_local i32 @main() #0 {
  %1 = alloca i32, align 4
  %2 = alloca [3000 x i8], align 16
  %3 = alloca [10 x i8], align 1
  %4 = alloca i8*, align 8
  %5 = alloca i8*, align 8
  %6 = alloca i32, align 4
  store i32 0, i32* %1, align 4
  %7 = getelementptr inbounds [3000 x i8], [3000 x i8]* %2, i64 0, i64 0
  store i8* %7, i8** %4, align 8
  %8 = load i8*, i8** %4, align 8
  %9 = call i32 (i8*, ...) bitcast (i32 (...)* @gets to i32 (i8*, ...)*)(i8* %8)
  %10 = load i8*, i8** %4, align 8
  %11 = call i8* @strcat(i8* %10, i8* getelementptr inbounds ([2 x i8], [2 x i8]* @.str, i64 0, i64 0)) #4
  br label %12

12:                                               ; preds = %43, %0
  %13 = load i8*, i8** %4, align 8
  %14 = load i8, i8* %13, align 1
  %15 = icmp ne i8 %14, 0
  br i1 %15, label %16, label %44

16:                                               ; preds = %12
  %17 = load i8*, i8** %4, align 8
  %18 = call i8* @strchr(i8* %17, i32 32) #5
  store i8* %18, i8** %5, align 8
  %19 = load i8*, i8** %5, align 8
  store i8 0, i8* %19, align 1
  %20 = getelementptr inbounds [10 x i8], [10 x i8]* %3, i64 0, i64 0
  %21 = load i8*, i8** %4, align 8
  %22 = call i8* @strcpy(i8* %20, i8* %21) #4
  %23 = getelementptr inbounds [10 x i8], [10 x i8]* %3, i64 0, i64 0
  %24 = call i64 @strlen(i8* %23) #5
  %25 = trunc i64 %24 to i32
  store i32 %25, i32* %6, align 4
  %26 = load i32, i32* %6, align 4
  %27 = icmp ne i32 %26, 0
  br i1 %27, label %28, label %31

28:                                               ; preds = %16
  %29 = load i32, i32* %6, align 4
  %30 = call i32 (i8*, ...) @printf(i8* getelementptr inbounds ([3 x i8], [3 x i8]* @.str.1, i64 0, i64 0), i32 %29)
  br label %31

31:                                               ; preds = %28, %16
  %32 = load i8*, i8** %5, align 8
  %33 = getelementptr inbounds i8, i8* %32, i64 1
  store i8* %33, i8** %4, align 8
  %34 = load i8*, i8** %4, align 8
  %35 = load i8, i8* %34, align 1
  %36 = sext i8 %35 to i32
  %37 = icmp ne i32 %36, 0
  br i1 %37, label %38, label %43

38:                                               ; preds = %31
  %39 = load i32, i32* %6, align 4
  %40 = icmp ne i32 %39, 0
  br i1 %40, label %41, label %43

41:                                               ; preds = %38
  %42 = call i32 (i8*, ...) @printf(i8* getelementptr inbounds ([2 x i8], [2 x i8]* @.str.2, i64 0, i64 0))
  br label %43

43:                                               ; preds = %41, %38, %31
  br label %12

44:                                               ; preds = %12
  ret i32 0
}

declare dso_local i32 @gets(...) #1

; Function Attrs: nounwind
declare dso_local i8* @strcat(i8*, i8*) #2

; Function Attrs: nounwind readonly
declare dso_local i8* @strchr(i8*, i32) #3

; Function Attrs: nounwind
declare dso_local i8* @strcpy(i8*, i8*) #2

; Function Attrs: nounwind readonly
declare dso_local i64 @strlen(i8*) #3

declare dso_local i32 @printf(i8*, ...) #1


!llvm.module.flags = !{!0}
!llvm.ident = !{!1}

!0 = !{i32 1, !"wchar_size", i32 4}
!1 = !{!"clang version 10.0.0-4ubuntu1 "}
