; ModuleID = 'source-C-CXX/27/1123.c'
source_filename = "source-C-CXX/27/1123.c"
target datalayout = "e-m:e-p270:32:32-p271:32:32-p272:64:64-i64:64-f80:128-n8:16:32:64-S128"
target triple = "x86_64-pc-linux-gnu"

@.str.1 = private unnamed_addr constant [3 x i8] c"%d\00", align 1

; Function Attrs: nounwind sspstrong uwtable
define dso_local i32 @main() local_unnamed_addr #0 {
  %1 = alloca [3000 x i8], align 16
  %2 = alloca [10 x i8], align 1
  %3 = getelementptr inbounds [3000 x i8], [3000 x i8]* %1, i64 0, i64 0
  call void @llvm.lifetime.start.p0i8(i64 3000, i8* nonnull %3) #7
  %4 = getelementptr inbounds [10 x i8], [10 x i8]* %2, i64 0, i64 0
  call void @llvm.lifetime.start.p0i8(i64 10, i8* nonnull %4) #7
  %5 = call i32 (i8*, ...) bitcast (i32 (...)* @gets to i32 (i8*, ...)*)(i8* nonnull %3) #7
  %6 = call i64 @strlen(i8* noundef nonnull %3)
  %7 = getelementptr [3000 x i8], [3000 x i8]* %1, i64 0, i64 %6
  %8 = bitcast i8* %7 to i16*
  store i16 32, i16* %8, align 1
  %9 = load i8, i8* %3, align 16, !tbaa !5
  %10 = icmp eq i8 %9, 0
  br i1 %10, label %31, label %11

11:                                               ; preds = %0, %27
  %12 = phi i8* [ %28, %27 ], [ %3, %0 ]
  %13 = call i8* @strchr(i8* noundef nonnull %12, i32 32) #8
  store i8 0, i8* %13, align 1, !tbaa !5
  %14 = call i8* @strcpy(i8* noundef nonnull %4, i8* noundef nonnull %12) #7
  %15 = call i64 @strlen(i8* noundef nonnull %4) #8
  %16 = trunc i64 %15 to i32
  %17 = icmp eq i32 %16, 0
  br i1 %17, label %18, label %20

18:                                               ; preds = %11
  %19 = getelementptr inbounds i8, i8* %13, i64 1
  br label %27

20:                                               ; preds = %11
  %21 = call i32 (i8*, ...) @printf(i8* nonnull dereferenceable(1) getelementptr inbounds ([3 x i8], [3 x i8]* @.str.1, i64 0, i64 0), i32 %16)
  %22 = getelementptr inbounds i8, i8* %13, i64 1
  %23 = load i8, i8* %22, align 1, !tbaa !5
  %24 = icmp eq i8 %23, 0
  br i1 %24, label %31, label %25

25:                                               ; preds = %20
  %26 = call i32 @putchar(i32 44)
  br label %27

27:                                               ; preds = %18, %25
  %28 = phi i8* [ %22, %25 ], [ %19, %18 ]
  %29 = load i8, i8* %28, align 1, !tbaa !5
  %30 = icmp eq i8 %29, 0
  br i1 %30, label %31, label %11, !llvm.loop !8

31:                                               ; preds = %20, %27, %0
  call void @llvm.lifetime.end.p0i8(i64 10, i8* nonnull %4) #7
  call void @llvm.lifetime.end.p0i8(i64 3000, i8* nonnull %3) #7
  ret i32 0
}

; Function Attrs: argmemonly mustprogress nofree nosync nounwind willreturn
declare void @llvm.lifetime.start.p0i8(i64 immarg, i8* nocapture) #1

declare i32 @gets(...) local_unnamed_addr #2

; Function Attrs: argmemonly mustprogress nofree nounwind readonly willreturn
declare i8* @strchr(i8*, i32) local_unnamed_addr #3

; Function Attrs: argmemonly mustprogress nofree nounwind willreturn
declare i8* @strcpy(i8* noalias returned writeonly, i8* noalias nocapture readonly) local_unnamed_addr #4

; Function Attrs: argmemonly mustprogress nofree nounwind readonly willreturn
declare i64 @strlen(i8* nocapture) local_unnamed_addr #3

; Function Attrs: nofree nounwind
declare noundef i32 @printf(i8* nocapture noundef readonly, ...) local_unnamed_addr #5

; Function Attrs: argmemonly mustprogress nofree nosync nounwind willreturn
declare void @llvm.lifetime.end.p0i8(i64 immarg, i8* nocapture) #1

; Function Attrs: nofree nounwind
declare noundef i32 @putchar(i32 noundef) local_unnamed_addr #6


!llvm.module.flags = !{!0, !1, !2, !3}
!llvm.ident = !{!4}

!0 = !{i32 1, !"wchar_size", i32 4}
!1 = !{i32 7, !"PIC Level", i32 2}
!2 = !{i32 7, !"PIE Level", i32 2}
!3 = !{i32 7, !"uwtable", i32 1}
!4 = !{!"clang version 13.0.0"}
!5 = !{!6, !6, i64 0}
!6 = !{!"omnipotent char", !7, i64 0}
!7 = !{!"Simple C/C++ TBAA"}
!8 = distinct !{!8, !9}
!9 = !{!"llvm.loop.mustprogress"}
